; Function Attrs: mustprogress nounwind uwtable
define dso_local void @_ZN5clang13ASTDeclWriter14VisitLabelDeclEPNS_9LabelDeclE(ptr noundef nonnull align 8 dereferenceable(241) %0, ptr noundef nonnull %1) local_unnamed_addr #0 align 2 {
  tail call void @_ZN5clang13ASTDeclWriter14VisitNamedDeclEPNS_9NamedDeclE(ptr noundef nonnull align 8 dereferenceable(241) %0, ptr noundef %1)
  %3 = load ptr, ptr %1, align 8
  %4 = getelementptr inbounds nuw i8, ptr %3, i64 16
  %5 = load ptr, ptr %4, align 8
  %6 = tail call i64 %5(ptr noundef nonnull align 8 dereferenceable(33) %1) #20
  %.sroa.0.0.extract.trunc.i = trunc i64 %6 to i32
  %7 = getelementptr inbounds nuw i8, ptr %0, i64 24
  %8 = load ptr, ptr %7, align 8
  %9 = getelementptr inbounds nuw i8, ptr %0, i64 32
  %10 = load ptr, ptr %9, align 8
  tail call void @_ZN5clang9ASTWriter17AddSourceLocationENS_14SourceLocationERN4llvm15SmallVectorImplImEEPNS_22SourceLocationSequenceE(ptr noundef nonnull align 8 dereferenceable(3340) %8, i32 %.sroa.0.0.extract.trunc.i, ptr noundef nonnull align 8 dereferenceable(16) %10, ptr noundef null) #19
  %11 = getelementptr inbounds nuw i8, ptr %0, i64 232
  store i32 83, ptr %11, align 8
  ret void
}